; Function Attrs: nounwind uwtable
define internal i32 @SpoolssGetPrinterDataEx_r(ptr noundef %0, i32 noundef %1, ptr noundef %2, ptr noundef %3, ptr noundef %4, ptr noundef %5) #0 {
  %7 = alloca i32, align 4
  %8 = alloca i32, align 4
  %9 = getelementptr inbounds nuw i8, ptr %4, i64 72
  %10 = load ptr, ptr %9, align 8
  %11 = load i32, ptr @hf_printerdata, align 4
  %12 = tail call ptr @proto_tree_add_uint(ptr noundef %3, i32 noundef %11, ptr noundef %0, i32 noundef %1, i32 noundef 0, i32 noundef 1) #5
  %.not.i = icmp eq ptr %12, null
  br i1 %.not.i, label %proto_item_set_hidden.exit, label %13

13:                                               ; preds = %6
  %14 = getelementptr inbounds nuw i8, ptr %12, i64 32
  %15 = load ptr, ptr %14, align 8
  %.not5.i = icmp eq ptr %15, null
  br i1 %.not5.i, label %proto_item_set_hidden.exit, label %16

16:                                               ; preds = %13
  %17 = getelementptr inbounds nuw i8, ptr %15, i64 28
  %18 = load i32, ptr %17, align 4
  %19 = or i32 %18, 1
  store i32 %19, ptr %17, align 4
  br label %proto_item_set_hidden.exit

proto_item_set_hidden.exit:                       ; preds = %6, %13, %16
  %20 = load i32, ptr @hf_printerdata_type, align 4
  %21 = call i32 @dissect_ndr_uint32(ptr noundef %0, i32 noundef %1, ptr noundef %2, ptr noundef %3, ptr noundef nonnull %4, ptr noundef %5, i32 noundef %20, ptr noundef nonnull %8) #5
  %22 = load i32, ptr @hf_returned, align 4
  %23 = call i32 @dissect_ndr_uint32(ptr noundef %0, i32 noundef %21, ptr noundef %2, ptr noundef %3, ptr noundef nonnull %4, ptr noundef %5, i32 noundef %22, ptr noundef nonnull %7) #5
  %24 = getelementptr inbounds nuw i8, ptr %10, i64 72
  %25 = load ptr, ptr %24, align 8
  %.not = icmp eq ptr %25, null
  br i1 %.not, label %29, label %26

26:                                               ; preds = %proto_item_set_hidden.exit
  %27 = getelementptr inbounds nuw i8, ptr %2, i64 8
  %28 = load ptr, ptr %27, align 8
  call void (ptr, i32, ptr, ...) @col_append_fstr(ptr noundef %28, i32 noundef 25, ptr noundef nonnull @.str.1228, ptr noundef nonnull %25) #5
  br label %29

29:                                               ; preds = %26, %proto_item_set_hidden.exit
  %30 = load i32, ptr %7, align 4
  %.not39 = icmp eq i32 %30, 0
  br i1 %.not39, label %34, label %31

31:                                               ; preds = %29
  %32 = load i32, ptr %8, align 4
  %33 = call fastcc i32 @dissect_printerdata_data(ptr noundef %0, i32 noundef %23, ptr noundef %2, ptr noundef %3, ptr noundef nonnull %4, ptr noundef %5, i32 noundef %32)
  %.pre = load i32, ptr %7, align 4
  br label %34

34:                                               ; preds = %31, %29
  %35 = phi i32 [ %.pre, %31 ], [ 0, %29 ]
  %36 = add i32 %35, %23
  %37 = load i32, ptr @hf_needed, align 4
  %38 = call i32 @dissect_ndr_uint32(ptr noundef %0, i32 noundef %36, ptr noundef %2, ptr noundef %3, ptr noundef nonnull %4, ptr noundef %5, i32 noundef %37, ptr noundef null) #5
  %39 = load i32, ptr @hf_rc, align 4
  %40 = call i32 @dissect_doserror(ptr noundef %0, i32 noundef %38, ptr noundef %2, ptr noundef %3, ptr noundef nonnull %4, ptr noundef %5, i32 noundef %39, ptr noundef null) #5
  ret i32 %40
}